target datalayout = "e-m:e-p270:32:32-p271:32:32-p272:64:64-i64:64-i128:128-f80:128-n8:16:32:64-S128"
target triple = "x86_64-pc-linux-gnu"

%struct.Ivy_Dec_t_ = type { i32 }
%struct.Vec_Int_t_ = type { i32, i32, ptr }
%union.anon.0 = type { %struct.Ivy_Dec_t_ }

@s_Masks = internal global [6 x [2 x i32]] [[2 x i32] [i32 1431655765, i32 -1431655766], [2 x i32] [i32 858993459, i32 -858993460], [2 x i32] [i32 252645135, i32 -252645136], [2 x i32] [i32 16711935, i32 -16711936], [2 x i32] [i32 65535, i32 -65536], [2 x i32] [i32 0, i32 -1]], align 16

; Function Attrs: nounwind uwtable
define internal i32 @Ivy_DecGetVar(ptr noundef %0, i32 noundef %1) #0 {
  %3 = alloca i32, align 4
  %4 = alloca ptr, align 8
  %5 = alloca i32, align 4
  store ptr %0, ptr %4, align 8
  store i32 %1, ptr %5, align 4
  %6 = load i32, ptr %5, align 4
  switch i32 %6, label %36 [
    i32 0, label %7
    i32 1, label %12
    i32 2, label %17
    i32 3, label %22
    i32 4, label %27
    i32 5, label %32
  ]

7:                                                ; preds = %2
  %8 = load ptr, ptr %4, align 8
  %9 = load i32, ptr %8, align 4
  %10 = lshr i32 %9, 8
  %11 = and i32 %10, 15
  store i32 %11, ptr %3, align 4
  br label %37

12:                                               ; preds = %2
  %13 = load ptr, ptr %4, align 8
  %14 = load i32, ptr %13, align 4
  %15 = lshr i32 %14, 12
  %16 = and i32 %15, 15
  store i32 %16, ptr %3, align 4
  br label %37

17:                                               ; preds = %2
  %18 = load ptr, ptr %4, align 8
  %19 = load i32, ptr %18, align 4
  %20 = lshr i32 %19, 16
  %21 = and i32 %20, 15
  store i32 %21, ptr %3, align 4
  br label %37

22:                                               ; preds = %2
  %23 = load ptr, ptr %4, align 8
  %24 = load i32, ptr %23, align 4
  %25 = lshr i32 %24, 20
  %26 = and i32 %25, 15
  store i32 %26, ptr %3, align 4
  br label %37

27:                                               ; preds = %2
  %28 = load ptr, ptr %4, align 8
  %29 = load i32, ptr %28, align 4
  %30 = lshr i32 %29, 24
  %31 = and i32 %30, 15
  store i32 %31, ptr %3, align 4
  br label %37

32:                                               ; preds = %2
  %33 = load ptr, ptr %4, align 8
  %34 = load i32, ptr %33, align 4
  %35 = lshr i32 %34, 28
  store i32 %35, ptr %3, align 4
  br label %37

36:                                               ; preds = %2
  store i32 -1, ptr %3, align 4
  br label %37

37:                                               ; preds = %36, %32, %27, %22, %17, %12, %7
  %38 = load i32, ptr %3, align 4
  ret i32 %38
}

; Function Attrs: nounwind uwtable
define internal i32 @Ivy_IntToDec(i32 noundef %0) #0 {
  %2 = alloca %struct.Ivy_Dec_t_, align 4
  %3 = alloca i32, align 4
  %4 = alloca %union.anon.0, align 4
  store i32 %0, ptr %3, align 4
  %5 = load i32, ptr %3, align 4
  store i32 %5, ptr %4, align 4
  call void @llvm.memcpy.p0.p0.i64(ptr align 4 %2, ptr align 4 %4, i64 4, i1 false)
  %6 = getelementptr inbounds %struct.Ivy_Dec_t_, ptr %2, i32 0, i32 0
  %7 = load i32, ptr %6, align 4
  ret i32 %7
}

; Function Attrs: nounwind uwtable
define internal i32 @Vec_IntEntry(ptr noundef %0, i32 noundef %1) #0 {
  %3 = alloca ptr, align 8
  %4 = alloca i32, align 4
  store ptr %0, ptr %3, align 8
  store i32 %1, ptr %4, align 4
  %5 = load ptr, ptr %3, align 8
  %6 = getelementptr inbounds %struct.Vec_Int_t_, ptr %5, i32 0, i32 2
  %7 = load ptr, ptr %6, align 8
  %8 = load i32, ptr %4, align 4
  %9 = sext i32 %8 to i64
  %10 = getelementptr inbounds i32, ptr %7, i64 %9
  %11 = load i32, ptr %10, align 4
  ret i32 %11
}

; Function Attrs: nounwind uwtable
define i32 @Ivy_TruthDsdCompute_rec(i32 noundef %0, ptr noundef %1) #0 {
  %3 = alloca i32, align 4
  %4 = alloca i32, align 4
  %5 = alloca ptr, align 8
  %6 = alloca i32, align 4
  %7 = alloca i32, align 4
  %8 = alloca i32, align 4
  %9 = alloca i32, align 4
  %10 = alloca %struct.Ivy_Dec_t_, align 4
  %11 = alloca i32, align 4
  %12 = alloca i32, align 4
  %13 = alloca i32, align 4
  %14 = alloca i32, align 4
  %15 = alloca i32, align 4
  %16 = alloca i32, align 4
  store i32 %0, ptr %4, align 4
  store ptr %1, ptr %5, align 8
  %17 = load ptr, ptr %5, align 8
  %18 = load i32, ptr %4, align 4
  %19 = call i32 @Vec_IntEntry(ptr noundef %17, i32 noundef %18)
  %20 = call i32 @Ivy_IntToDec(i32 noundef %19)
  %21 = getelementptr inbounds %struct.Ivy_Dec_t_, ptr %10, i32 0, i32 0
  store i32 %20, ptr %21, align 4
  %22 = load i32, ptr %10, align 4
  %23 = and i32 %22, 15
  %24 = icmp eq i32 %23, 1
  br i1 %24, label %25, label %36

25:                                               ; preds = %2
  %26 = load i32, ptr %10, align 4
  %27 = lshr i32 %26, 4
  %28 = and i32 %27, 1
  %29 = icmp ne i32 %28, 0
  %30 = xor i1 %29, true
  %31 = zext i1 %30 to i32
  %32 = sext i32 %31 to i64
  %33 = getelementptr inbounds [6 x [2 x i32]], ptr @s_Masks, i64 0, i64 5
  %34 = getelementptr inbounds [2 x i32], ptr %33, i64 0, i64 %32
  %35 = load i32, ptr %34, align 4
  store i32 %35, ptr %3, align 4
  br label %238

36:                                               ; preds = %2
  %37 = load i32, ptr %10, align 4
  %38 = and i32 %37, 15
  %39 = icmp eq i32 %38, 0
  br i1 %39, label %40, label %53

40:                                               ; preds = %36
  %41 = load i32, ptr %4, align 4
  %42 = sext i32 %41 to i64
  %43 = getelementptr inbounds [6 x [2 x i32]], ptr @s_Masks, i64 0, i64 %42
  %44 = load i32, ptr %10, align 4
  %45 = lshr i32 %44, 4
  %46 = and i32 %45, 1
  %47 = icmp ne i32 %46, 0
  %48 = xor i1 %47, true
  %49 = zext i1 %48 to i32
  %50 = sext i32 %49 to i64
  %51 = getelementptr inbounds [2 x i32], ptr %43, i64 0, i64 %50
  %52 = load i32, ptr %51, align 4
  store i32 %52, ptr %3, align 4
  br label %238

53:                                               ; preds = %36
  %54 = load i32, ptr %10, align 4
  %55 = and i32 %54, 15
  %56 = icmp eq i32 %55, 2
  br i1 %56, label %57, label %75

57:                                               ; preds = %53
  %58 = load i32, ptr %10, align 4
  %59 = lshr i32 %58, 8
  %60 = and i32 %59, 15
  %61 = ashr i32 %60, 1
  %62 = load ptr, ptr %5, align 8
  %63 = call i32 @Ivy_TruthDsdCompute_rec(i32 noundef %61, ptr noundef %62)
  store i32 %63, ptr %7, align 4
  %64 = load i32, ptr %10, align 4
  %65 = lshr i32 %64, 4
  %66 = and i32 %65, 1
  %67 = icmp ne i32 %66, 0
  br i1 %67, label %68, label %71

68:                                               ; preds = %57
  %69 = load i32, ptr %7, align 4
  %70 = xor i32 %69, -1
  br label %73

71:                                               ; preds = %57
  %72 = load i32, ptr %7, align 4
  br label %73

73:                                               ; preds = %71, %68
  %74 = phi i32 [ %70, %68 ], [ %72, %71 ]
  store i32 %74, ptr %3, align 4
  br label %238

75:                                               ; preds = %53
  %76 = load i32, ptr %10, align 4
  %77 = and i32 %76, 15
  %78 = icmp eq i32 %77, 3
  br i1 %78, label %79, label %124

79:                                               ; preds = %75
  %80 = getelementptr inbounds [6 x [2 x i32]], ptr @s_Masks, i64 0, i64 5, i64 1
  %81 = load i32, ptr %80, align 4
  store i32 %81, ptr %7, align 4
  store i32 0, ptr %9, align 4
  br label %82

82:                                               ; preds = %109, %79
  %83 = load i32, ptr %9, align 4
  %84 = load i32, ptr %10, align 4
  %85 = lshr i32 %84, 5
  %86 = and i32 %85, 7
  %87 = icmp slt i32 %83, %86
  br i1 %87, label %88, label %112

88:                                               ; preds = %82
  %89 = load i32, ptr %9, align 4
  %90 = call i32 @Ivy_DecGetVar(ptr noundef %10, i32 noundef %89)
  store i32 %90, ptr %8, align 4
  %91 = load i32, ptr %8, align 4
  %92 = ashr i32 %91, 1
  %93 = load ptr, ptr %5, align 8
  %94 = call i32 @Ivy_TruthDsdCompute_rec(i32 noundef %92, ptr noundef %93)
  store i32 %94, ptr %6, align 4
  %95 = load i32, ptr %8, align 4
  %96 = and i32 %95, 1
  %97 = icmp ne i32 %96, 0
  br i1 %97, label %98, label %103

98:                                               ; preds = %88
  %99 = load i32, ptr %7, align 4
  %100 = load i32, ptr %6, align 4
  %101 = xor i32 %100, -1
  %102 = and i32 %99, %101
  br label %107

103:                                              ; preds = %88
  %104 = load i32, ptr %7, align 4
  %105 = load i32, ptr %6, align 4
  %106 = and i32 %104, %105
  br label %107

107:                                              ; preds = %103, %98
  %108 = phi i32 [ %102, %98 ], [ %106, %103 ]
  store i32 %108, ptr %7, align 4
  br label %109

109:                                              ; preds = %107
  %110 = load i32, ptr %9, align 4
  %111 = add nsw i32 %110, 1
  store i32 %111, ptr %9, align 4
  br label %82, !llvm.loop !8

112:                                              ; preds = %82
  %113 = load i32, ptr %10, align 4
  %114 = lshr i32 %113, 4
  %115 = and i32 %114, 1
  %116 = icmp ne i32 %115, 0
  br i1 %116, label %117, label %120

117:                                              ; preds = %112
  %118 = load i32, ptr %7, align 4
  %119 = xor i32 %118, -1
  br label %122

120:                                              ; preds = %112
  %121 = load i32, ptr %7, align 4
  br label %122

122:                                              ; preds = %120, %117
  %123 = phi i32 [ %119, %117 ], [ %121, %120 ]
  store i32 %123, ptr %3, align 4
  br label %238

124:                                              ; preds = %75
  %125 = load i32, ptr %10, align 4
  %126 = and i32 %125, 15
  %127 = icmp eq i32 %126, 4
  br i1 %127, label %128, label %159

128:                                              ; preds = %124
  store i32 0, ptr %7, align 4
  store i32 0, ptr %9, align 4
  br label %129

129:                                              ; preds = %144, %128
  %130 = load i32, ptr %9, align 4
  %131 = load i32, ptr %10, align 4
  %132 = lshr i32 %131, 5
  %133 = and i32 %132, 7
  %134 = icmp slt i32 %130, %133
  br i1 %134, label %135, label %147

135:                                              ; preds = %129
  %136 = load i32, ptr %9, align 4
  %137 = call i32 @Ivy_DecGetVar(ptr noundef %10, i32 noundef %136)
  store i32 %137, ptr %8, align 4
  %138 = load i32, ptr %8, align 4
  %139 = ashr i32 %138, 1
  %140 = load ptr, ptr %5, align 8
  %141 = call i32 @Ivy_TruthDsdCompute_rec(i32 noundef %139, ptr noundef %140)
  %142 = load i32, ptr %7, align 4
  %143 = xor i32 %142, %141
  store i32 %143, ptr %7, align 4
  br label %144

144:                                              ; preds = %135
  %145 = load i32, ptr %9, align 4
  %146 = add nsw i32 %145, 1
  store i32 %146, ptr %9, align 4
  br label %129, !llvm.loop !9

147:                                              ; preds = %129
  %148 = load i32, ptr %10, align 4
  %149 = lshr i32 %148, 4
  %150 = and i32 %149, 1
  %151 = icmp ne i32 %150, 0
  br i1 %151, label %152, label %155

152:                                              ; preds = %147
  %153 = load i32, ptr %7, align 4
  %154 = xor i32 %153, -1
  br label %157

155:                                              ; preds = %147
  %156 = load i32, ptr %7, align 4
  br label %157

157:                                              ; preds = %155, %152
  %158 = phi i32 [ %154, %152 ], [ %156, %155 ]
  store i32 %158, ptr %3, align 4
  br label %238

159:                                              ; preds = %124
  %160 = load i32, ptr %10, align 4
  %161 = and i32 %160, 15
  %162 = icmp eq i32 %161, 5
  br i1 %162, label %167, label %163

163:                                              ; preds = %159
  %164 = load i32, ptr %10, align 4
  %165 = and i32 %164, 15
  %166 = icmp eq i32 %165, 6
  br i1 %166, label %167, label %237

167:                                              ; preds = %163, %159
  %168 = call i32 @Ivy_DecGetVar(ptr noundef %10, i32 noundef 0)
  store i32 %168, ptr %14, align 4
  %169 = call i32 @Ivy_DecGetVar(ptr noundef %10, i32 noundef 1)
  store i32 %169, ptr %15, align 4
  %170 = call i32 @Ivy_DecGetVar(ptr noundef %10, i32 noundef 2)
  store i32 %170, ptr %16, align 4
  %171 = load i32, ptr %14, align 4
  %172 = ashr i32 %171, 1
  %173 = load ptr, ptr %5, align 8
  %174 = call i32 @Ivy_TruthDsdCompute_rec(i32 noundef %172, ptr noundef %173)
  store i32 %174, ptr %11, align 4
  %175 = load i32, ptr %15, align 4
  %176 = ashr i32 %175, 1
  %177 = load ptr, ptr %5, align 8
  %178 = call i32 @Ivy_TruthDsdCompute_rec(i32 noundef %176, ptr noundef %177)
  store i32 %178, ptr %12, align 4
  %179 = load i32, ptr %16, align 4
  %180 = ashr i32 %179, 1
  %181 = load ptr, ptr %5, align 8
  %182 = call i32 @Ivy_TruthDsdCompute_rec(i32 noundef %180, ptr noundef %181)
  store i32 %182, ptr %13, align 4
  %183 = load i32, ptr %14, align 4
  %184 = and i32 %183, 1
  %185 = icmp ne i32 %184, 0
  br i1 %185, label %186, label %189

186:                                              ; preds = %167
  %187 = load i32, ptr %11, align 4
  %188 = xor i32 %187, -1
  br label %191

189:                                              ; preds = %167
  %190 = load i32, ptr %11, align 4
  br label %191

191:                                              ; preds = %189, %186
  %192 = phi i32 [ %188, %186 ], [ %190, %189 ]
  store i32 %192, ptr %11, align 4
  %193 = load i32, ptr %15, align 4
  %194 = and i32 %193, 1
  %195 = icmp ne i32 %194, 0
  br i1 %195, label %196, label %199

196:                                              ; preds = %191
  %197 = load i32, ptr %12, align 4
  %198 = xor i32 %197, -1
  br label %201

199:                                              ; preds = %191
  %200 = load i32, ptr %12, align 4
  br label %201

201:                                              ; preds = %199, %196
  %202 = phi i32 [ %198, %196 ], [ %200, %199 ]
  store i32 %202, ptr %12, align 4
  %203 = load i32, ptr %16, align 4
  %204 = and i32 %203, 1
  %205 = icmp ne i32 %204, 0
  br i1 %205, label %206, label %209

206:                                              ; preds = %201
  %207 = load i32, ptr %13, align 4
  %208 = xor i32 %207, -1
  br label %211

209:                                              ; preds = %201
  %210 = load i32, ptr %13, align 4
  br label %211

211:                                              ; preds = %209, %206
  %212 = phi i32 [ %208, %206 ], [ %210, %209 ]
  store i32 %212, ptr %13, align 4
  %213 = load i32, ptr %10, align 4
  %214 = and i32 %213, 15
  %215 = icmp eq i32 %214, 5
  br i1 %215, label %216, label %225

216:                                              ; preds = %211
  %217 = load i32, ptr %11, align 4
  %218 = load i32, ptr %12, align 4
  %219 = and i32 %217, %218
  %220 = load i32, ptr %11, align 4
  %221 = xor i32 %220, -1
  %222 = load i32, ptr %13, align 4
  %223 = and i32 %221, %222
  %224 = or i32 %219, %223
  store i32 %224, ptr %3, align 4
  br label %238

225:                                              ; preds = %211
  %226 = load i32, ptr %11, align 4
  %227 = load i32, ptr %12, align 4
  %228 = and i32 %226, %227
  %229 = load i32, ptr %11, align 4
  %230 = load i32, ptr %13, align 4
  %231 = and i32 %229, %230
  %232 = or i32 %228, %231
  %233 = load i32, ptr %12, align 4
  %234 = load i32, ptr %13, align 4
  %235 = and i32 %233, %234
  %236 = or i32 %232, %235
  store i32 %236, ptr %3, align 4
  br label %238

237:                                              ; preds = %163
  store i32 0, ptr %3, align 4
  br label %238

238:                                              ; preds = %237, %225, %216, %157, %122, %73, %40, %25
  %239 = load i32, ptr %3, align 4
  ret i32 %239
}