; Function Attrs: nofree nosync nounwind memory(read, inaccessiblemem: none) uwtable
define i32 @Ivy_TruthDsdCompute_rec(i32 noundef %0, ptr noundef %1) local_unnamed_addr #1 {
  %3 = getelementptr i8, ptr %1, i64 8
  %.val = load ptr, ptr %3, align 8
  br label %tailrecurse

tailrecurse:                                      ; preds = %46, %2
  %accumulator.tr = phi i32 [ 0, %2 ], [ %50, %46 ]
  %.tr = phi i32 [ %0, %2 ], [ %48, %46 ]
  %4 = sext i32 %.tr to i64
  %5 = getelementptr inbounds i32, ptr %.val, i64 %4
  %6 = load i32, ptr %5, align 4
  %7 = and i32 %6, 15
  switch i32 %7, label %.loopexit [
    i32 1, label %34
    i32 0, label %40
    i32 2, label %46
    i32 3, label %.preheader
    i32 4, label %.preheader83
    i32 5, label %78
    i32 6, label %78
  ]

.preheader83:                                     ; preds = %tailrecurse
  %8 = lshr i32 %6, 5
  %9 = and i32 %8, 7
  %.not = icmp eq i32 %9, 0
  br i1 %.not, label %._crit_edge, label %.lr.ph

.lr.ph:                                           ; preds = %.preheader83
  %10 = lshr i32 %6, 28
  %11 = lshr i32 %6, 24
  %12 = and i32 %11, 15
  %13 = lshr i32 %6, 20
  %14 = and i32 %13, 15
  %15 = lshr i32 %6, 16
  %16 = and i32 %15, 15
  %17 = lshr i32 %6, 12
  %18 = and i32 %17, 15
  %19 = lshr i32 %6, 8
  %20 = and i32 %19, 15
  br label %65

.preheader:                                       ; preds = %tailrecurse
  %21 = lshr i32 %6, 5
  %22 = and i32 %21, 7
  %.not114 = icmp eq i32 %22, 0
  br i1 %.not114, label %._crit_edge112, label %.lr.ph111

.lr.ph111:                                        ; preds = %.preheader
  %23 = lshr i32 %6, 28
  %24 = lshr i32 %6, 24
  %25 = and i32 %24, 15
  %26 = lshr i32 %6, 20
  %27 = and i32 %26, 15
  %28 = lshr i32 %6, 16
  %29 = and i32 %28, 15
  %30 = lshr i32 %6, 12
  %31 = and i32 %30, 15
  %32 = lshr i32 %6, 8
  %33 = and i32 %32, 15
  br label %51

34:                                               ; preds = %tailrecurse
  %35 = lshr i32 %6, 4
  %.lobit63 = and i32 %35, 1
  %36 = xor i32 %.lobit63, 1
  %37 = zext nneg i32 %36 to i64
  %38 = getelementptr inbounds nuw [2 x i32], ptr getelementptr inbounds nuw (i8, ptr @s_Masks, i64 40), i64 0, i64 %37
  %39 = load i32, ptr %38, align 4
  br label %.loopexit

40:                                               ; preds = %tailrecurse
  %41 = lshr exact i32 %6, 4
  %.lobit = and i32 %41, 1
  %42 = xor i32 %.lobit, 1
  %43 = zext nneg i32 %42 to i64
  %44 = getelementptr inbounds [6 x [2 x i32]], ptr @s_Masks, i64 0, i64 %4, i64 %43
  %45 = load i32, ptr %44, align 4
  br label %.loopexit

46:                                               ; preds = %tailrecurse
  %47 = lshr i32 %6, 9
  %48 = and i32 %47, 7
  %49 = shl i32 %6, 27
  %sext60 = ashr i32 %49, 31
  %50 = xor i32 %sext60, %accumulator.tr
  br label %tailrecurse

51:                                               ; preds = %.lr.ph111, %Ivy_DecGetVar.exit
  %.051110 = phi i32 [ -1, %.lr.ph111 ], [ %61, %Ivy_DecGetVar.exit ]
  %.052109 = phi i32 [ 0, %.lr.ph111 ], [ %62, %Ivy_DecGetVar.exit ]
  switch i32 %.052109, label %Ivy_DecGetVar.exit [
    i32 0, label %52
    i32 1, label %53
    i32 2, label %54
    i32 3, label %55
    i32 4, label %56
    i32 5, label %57
  ]

52:                                               ; preds = %51
  br label %Ivy_DecGetVar.exit

53:                                               ; preds = %51
  br label %Ivy_DecGetVar.exit

54:                                               ; preds = %51
  br label %Ivy_DecGetVar.exit

55:                                               ; preds = %51
  br label %Ivy_DecGetVar.exit

56:                                               ; preds = %51
  br label %Ivy_DecGetVar.exit

57:                                               ; preds = %51
  br label %Ivy_DecGetVar.exit

Ivy_DecGetVar.exit:                               ; preds = %51, %52, %53, %54, %55, %56, %57
  %.0.i = phi i32 [ %23, %57 ], [ %25, %56 ], [ %27, %55 ], [ %29, %54 ], [ %31, %53 ], [ %33, %52 ], [ -1, %51 ]
  %58 = ashr i32 %.0.i, 1
  %59 = tail call i32 @Ivy_TruthDsdCompute_rec(i32 noundef %58, ptr noundef %1)
  %60 = and i32 %.0.i, 1
  %sext = sub nsw i32 0, %60
  %.pn = xor i32 %59, %sext
  %61 = and i32 %.pn, %.051110
  %62 = add nuw nsw i32 %.052109, 1
  %exitcond140.not = icmp eq i32 %62, %22
  br i1 %exitcond140.not, label %._crit_edge112, label %51, !llvm.loop !13

._crit_edge112:                                   ; preds = %Ivy_DecGetVar.exit, %.preheader
  %.051.lcssa = phi i32 [ -1, %.preheader ], [ %61, %Ivy_DecGetVar.exit ]
  %63 = shl i32 %6, 27
  %sext58 = ashr i32 %63, 31
  %64 = xor i32 %.051.lcssa, %sext58
  br label %.loopexit

65:                                               ; preds = %.lr.ph, %Ivy_DecGetVar.exit70
  %.1108 = phi i32 [ 0, %.lr.ph ], [ %74, %Ivy_DecGetVar.exit70 ]
  %.153107 = phi i32 [ 0, %.lr.ph ], [ %75, %Ivy_DecGetVar.exit70 ]
  switch i32 %.153107, label %Ivy_DecGetVar.exit70 [
    i32 0, label %66
    i32 1, label %67
    i32 2, label %68
    i32 3, label %69
    i32 4, label %70
    i32 5, label %71
  ]

66:                                               ; preds = %65
  br label %Ivy_DecGetVar.exit70

67:                                               ; preds = %65
  br label %Ivy_DecGetVar.exit70

68:                                               ; preds = %65
  br label %Ivy_DecGetVar.exit70

69:                                               ; preds = %65
  br label %Ivy_DecGetVar.exit70

70:                                               ; preds = %65
  br label %Ivy_DecGetVar.exit70

71:                                               ; preds = %65
  br label %Ivy_DecGetVar.exit70

Ivy_DecGetVar.exit70:                             ; preds = %65, %66, %67, %68, %69, %70, %71
  %.0.i69 = phi i32 [ %10, %71 ], [ %12, %70 ], [ %14, %69 ], [ %16, %68 ], [ %18, %67 ], [ %20, %66 ], [ -1, %65 ]
  %72 = ashr i32 %.0.i69, 1
  %73 = tail call i32 @Ivy_TruthDsdCompute_rec(i32 noundef %72, ptr noundef %1)
  %74 = xor i32 %73, %.1108
  %75 = add nuw nsw i32 %.153107, 1
  %exitcond.not = icmp eq i32 %75, %9
  br i1 %exitcond.not, label %._crit_edge, label %65, !llvm.loop !14

._crit_edge:                                      ; preds = %Ivy_DecGetVar.exit70, %.preheader83
  %.1.lcssa = phi i32 [ 0, %.preheader83 ], [ %74, %Ivy_DecGetVar.exit70 ]
  %76 = shl i32 %6, 27
  %sext57 = ashr i32 %76, 31
  %77 = xor i32 %.1.lcssa, %sext57
  br label %.loopexit

78:                                               ; preds = %tailrecurse, %tailrecurse
  %79 = lshr i32 %6, 9
  %80 = and i32 %79, 7
  %81 = tail call i32 @Ivy_TruthDsdCompute_rec(i32 noundef %80, ptr noundef nonnull %1)
  %82 = lshr i32 %6, 13
  %83 = and i32 %82, 7
  %84 = tail call i32 @Ivy_TruthDsdCompute_rec(i32 noundef %83, ptr noundef nonnull %1)
  %85 = lshr i32 %6, 17
  %86 = and i32 %85, 7
  %87 = tail call i32 @Ivy_TruthDsdCompute_rec(i32 noundef %86, ptr noundef nonnull %1)
  %88 = shl i32 %6, 23
  %89 = ashr i32 %88, 31
  %90 = xor i32 %81, %89
  %91 = shl i32 %6, 19
  %92 = ashr i32 %91, 31
  %93 = xor i32 %84, %92
  %94 = shl i32 %6, 15
  %95 = ashr i32 %94, 31
  %96 = xor i32 %87, %95
  %97 = icmp eq i32 %7, 5
  br i1 %97, label %98, label %103

98:                                               ; preds = %78
  %99 = and i32 %93, %90
  %100 = xor i32 %90, -1
  %101 = and i32 %96, %100
  %102 = or i32 %101, %99
  br label %.loopexit

103:                                              ; preds = %78
  %104 = or i32 %96, %93
  %105 = and i32 %104, %90
  %106 = and i32 %96, %93
  %107 = or i32 %105, %106
  br label %.loopexit

.loopexit:                                        ; preds = %tailrecurse, %103, %98, %._crit_edge, %._crit_edge112, %40, %34
  %.0 = phi i32 [ %39, %34 ], [ %45, %40 ], [ %64, %._crit_edge112 ], [ %77, %._crit_edge ], [ %102, %98 ], [ %107, %103 ], [ 0, %tailrecurse ]
  %accumulator.ret.tr = xor i32 %.0, %accumulator.tr
  ret i32 %accumulator.ret.tr
}